target datalayout = "e-m:e-p270:32:32-p271:32:32-p272:64:64-i64:64-i128:128-f80:128-n8:16:32:64-S128"
target triple = "x86_64-pc-linux-gnu"

%struct.slurm_opt_t = type { ptr, ptr, ptr, ptr, ptr, ptr, ptr, ptr, i32, ptr, ptr, ptr, ptr, i32, i32, ptr, i32, i8, i8, i32, i8, i32, i32, ptr, i8, i32, i32, i64, i32, i32, i32, i32, i32, i32, ptr, i32, ptr, i8, i32, i32, ptr, i32, i32, i32, ptr, ptr, i32, i32, ptr, ptr, ptr, i32, i16, i16, i16, i8, i8, ptr, i8, i16, ptr, ptr, i32, i32, i32, ptr, ptr, ptr, ptr, ptr, ptr, i32, i64, i64, i64, i16, i64, ptr, ptr, ptr, ptr, ptr, ptr, ptr, i8, ptr, ptr, ptr, ptr, i8, i64, ptr, i16, ptr, i32, i32, ptr, ptr, i32, i32, i32, ptr, i32, i32, i32, i32, i32, ptr, i64, i32, i16, i32, ptr, ptr, ptr, ptr, ptr, i16, ptr, ptr, i16, i8, ptr, ptr, ptr, ptr }

@.str.34 = private unnamed_addr constant [8 x i8] c"parse.c\00", align 1
@__func__.parse_scron_line = private unnamed_addr constant [17 x i8] c"parse_scron_line\00", align 1
@.str.36 = private unnamed_addr constant [9 x i8] c"scrontab\00", align 1
@.str.37 = private unnamed_addr constant [40 x i8] c"Invalid option found in #SCRON line: %s\00", align 1
@opt = external global %struct.slurm_opt_t, align 8
@optind = external global i32, align 4
@optarg = external global ptr, align 8

; Function Attrs: nounwind uwtable
define internal i32 @_set_options(i32 noundef %0, ptr noundef %1) #0 {
  %3 = alloca i32, align 4
  %4 = alloca i32, align 4
  %5 = alloca ptr, align 8
  %6 = alloca i32, align 4
  %7 = alloca ptr, align 8
  %8 = alloca ptr, align 8
  %9 = alloca i32, align 4
  store i32 %0, ptr %4, align 4
  store ptr %1, ptr %5, align 8
  call void @llvm.lifetime.start.p0(i64 4, ptr %6) #6
  call void @llvm.lifetime.start.p0(i64 8, ptr %7) #6
  store ptr null, ptr %7, align 8
  call void @llvm.lifetime.start.p0(i64 8, ptr %8) #6
  %10 = call ptr @slurm_option_table_create(ptr noundef @opt, ptr noundef %7)
  store ptr %10, ptr %8, align 8
  store i32 0, ptr @optind, align 4
  br label %11

11:                                               ; preds = %27, %2
  %12 = load i32, ptr %4, align 4
  %13 = load ptr, ptr %5, align 8
  %14 = load ptr, ptr %7, align 8
  %15 = load ptr, ptr %8, align 8
  %16 = call i32 @getopt_long(i32 noundef %12, ptr noundef %13, ptr noundef %14, ptr noundef %15, ptr noundef null) #6
  store i32 %16, ptr %6, align 4
  %17 = icmp ne i32 %16, -1
  br i1 %17, label %18, label %28

18:                                               ; preds = %11
  %19 = load i32, ptr %6, align 4
  %20 = load ptr, ptr @optarg, align 8
  %21 = call i32 @slurm_process_option(ptr noundef @opt, i32 noundef %19, ptr noundef %20, i1 noundef zeroext false, i1 noundef zeroext false)
  %22 = icmp ne i32 %21, 0
  br i1 %22, label %23, label %27

23:                                               ; preds = %18
  %24 = load ptr, ptr %8, align 8
  call void @slurm_option_table_destroy(ptr noundef %24)
  call void @slurm_xfree(ptr noundef %7)
  %25 = load i32, ptr @optind, align 4
  %26 = sub nsw i32 %25, 1
  store i32 %26, ptr %3, align 4
  store i32 1, ptr %9, align 4
  br label %31

27:                                               ; preds = %18
  br label %11, !llvm.loop !24

28:                                               ; preds = %11
  %29 = load ptr, ptr %8, align 8
  call void @slurm_option_table_destroy(ptr noundef %29)
  call void @slurm_xfree(ptr noundef %7)
  %30 = load i32, ptr @optind, align 4
  store i32 %30, ptr %3, align 4
  store i32 1, ptr %9, align 4
  br label %31

31:                                               ; preds = %28, %23
  call void @llvm.lifetime.end.p0(i64 8, ptr %8) #6
  call void @llvm.lifetime.end.p0(i64 8, ptr %7) #6
  call void @llvm.lifetime.end.p0(i64 4, ptr %6) #6
  %32 = load i32, ptr %3, align 4
  ret i32 %32
}

; Function Attrs: nounwind uwtable
define dso_local ptr @get_argument(ptr noundef %0) #0 {
  %2 = alloca ptr, align 8
  %3 = alloca ptr, align 8
  %4 = alloca ptr, align 8
  %5 = alloca ptr, align 8
  %6 = alloca i32, align 4
  store ptr %0, ptr %3, align 8
  call void @llvm.lifetime.start.p0(i64 8, ptr %4) #6
  %7 = load ptr, ptr %3, align 8
  %8 = load ptr, ptr %7, align 8
  store ptr %8, ptr %4, align 8
  call void @llvm.lifetime.start.p0(i64 8, ptr %5) #6
  br label %9

9:                                                ; preds = %21, %1
  %10 = load ptr, ptr %4, align 8
  %11 = load i8, ptr %10, align 1
  %12 = sext i8 %11 to i32
  %13 = icmp eq i32 %12, 32
  br i1 %13, label %19, label %14

14:                                               ; preds = %9
  %15 = load ptr, ptr %4, align 8
  %16 = load i8, ptr %15, align 1
  %17 = sext i8 %16 to i32
  %18 = icmp eq i32 %17, 9
  br label %19

19:                                               ; preds = %14, %9
  %20 = phi i1 [ true, %9 ], [ %18, %14 ]
  br i1 %20, label %21, label %24

21:                                               ; preds = %19
  %22 = load ptr, ptr %4, align 8
  %23 = getelementptr inbounds nuw i8, ptr %22, i32 1
  store ptr %23, ptr %4, align 8
  br label %9, !llvm.loop !19

24:                                               ; preds = %19
  %25 = load ptr, ptr %4, align 8
  %26 = load i8, ptr %25, align 1
  %27 = sext i8 %26 to i32
  %28 = icmp eq i32 %27, 0
  br i1 %28, label %29, label %30

29:                                               ; preds = %24
  store ptr null, ptr %2, align 8
  store i32 1, ptr %6, align 4
  br label %72

30:                                               ; preds = %24
  %31 = load ptr, ptr %4, align 8
  store ptr %31, ptr %5, align 8
  br label %32

32:                                               ; preds = %49, %30
  %33 = load ptr, ptr %5, align 8
  %34 = load i8, ptr %33, align 1
  %35 = sext i8 %34 to i32
  %36 = icmp ne i32 %35, 0
  br i1 %36, label %37, label %47

37:                                               ; preds = %32
  %38 = load ptr, ptr %5, align 8
  %39 = load i8, ptr %38, align 1
  %40 = sext i8 %39 to i32
  %41 = icmp ne i32 %40, 32
  br i1 %41, label %42, label %47

42:                                               ; preds = %37
  %43 = load ptr, ptr %5, align 8
  %44 = load i8, ptr %43, align 1
  %45 = sext i8 %44 to i32
  %46 = icmp ne i32 %45, 9
  br label %47

47:                                               ; preds = %42, %37, %32
  %48 = phi i1 [ false, %37 ], [ false, %32 ], [ %46, %42 ]
  br i1 %48, label %49, label %52

49:                                               ; preds = %47
  %50 = load ptr, ptr %5, align 8
  %51 = getelementptr inbounds nuw i8, ptr %50, i32 1
  store ptr %51, ptr %5, align 8
  br label %32, !llvm.loop !20

52:                                               ; preds = %47
  %53 = load ptr, ptr %5, align 8
  %54 = load ptr, ptr %3, align 8
  store ptr %53, ptr %54, align 8
  %55 = load ptr, ptr %3, align 8
  %56 = load ptr, ptr %55, align 8
  %57 = load i8, ptr %56, align 1
  %58 = sext i8 %57 to i32
  %59 = icmp ne i32 %58, 0
  br i1 %59, label %60, label %64

60:                                               ; preds = %52
  %61 = load ptr, ptr %3, align 8
  %62 = load ptr, ptr %61, align 8
  %63 = getelementptr inbounds nuw i8, ptr %62, i32 1
  store ptr %63, ptr %61, align 8
  br label %64

64:                                               ; preds = %60, %52
  %65 = load ptr, ptr %4, align 8
  %66 = load ptr, ptr %5, align 8
  %67 = load ptr, ptr %4, align 8
  %68 = ptrtoint ptr %66 to i64
  %69 = ptrtoint ptr %67 to i64
  %70 = sub i64 %68, %69
  %71 = call ptr @xstrndup(ptr noundef %65, i64 noundef %70)
  store ptr %71, ptr %2, align 8
  store i32 1, ptr %6, align 4
  br label %72

72:                                               ; preds = %64, %29
  call void @llvm.lifetime.end.p0(i64 8, ptr %5) #6
  call void @llvm.lifetime.end.p0(i64 8, ptr %4) #6
  %73 = load ptr, ptr %2, align 8
  ret ptr %73
}

; Function Attrs: nounwind uwtable
define dso_local i32 @parse_scron_line(ptr noundef %0, i32 noundef %1) #0 {
  %3 = alloca i32, align 4
  %4 = alloca ptr, align 8
  %5 = alloca i32, align 4
  %6 = alloca ptr, align 8
  %7 = alloca i32, align 4
  %8 = alloca i32, align 4
  %9 = alloca ptr, align 8
  %10 = alloca i32, align 4
  store ptr %0, ptr %4, align 8
  store i32 %1, ptr %5, align 4
  call void @llvm.lifetime.start.p0(i64 8, ptr %6) #6
  call void @llvm.lifetime.start.p0(i64 4, ptr %7) #6
  call void @llvm.lifetime.start.p0(i64 4, ptr %8) #6
  store i32 1, ptr %8, align 4
  call void @llvm.lifetime.start.p0(i64 8, ptr %9) #6
  %11 = call ptr @slurm_xcalloc(i64 noundef 1, i64 noundef 8, i1 noundef zeroext true, i1 noundef zeroext false, ptr noundef @.str.34, i32 noundef 505, ptr noundef @__func__.parse_scron_line)
  store ptr %11, ptr %9, align 8
  %12 = load ptr, ptr %9, align 8
  %13 = getelementptr inbounds ptr, ptr %12, i64 0
  store ptr @.str.36, ptr %13, align 8
  br label %14

14:                                               ; preds = %17, %2
  %15 = call ptr @get_argument(ptr noundef %4)
  store ptr %15, ptr %6, align 8
  %16 = icmp ne ptr %15, null
  br i1 %16, label %17, label %29

17:                                               ; preds = %14
  %18 = load i32, ptr %8, align 4
  %19 = add nsw i32 %18, 1
  store i32 %19, ptr %8, align 4
  %20 = load i32, ptr %8, align 4
  %21 = sext i32 %20 to i64
  %22 = call ptr @slurm_xrecalloc(ptr noundef %9, i64 noundef %21, i64 noundef 8, i1 noundef zeroext true, i1 noundef zeroext false, ptr noundef @.str.34, i32 noundef 510, ptr noundef @__func__.parse_scron_line)
  %23 = load ptr, ptr %6, align 8
  %24 = load ptr, ptr %9, align 8
  %25 = load i32, ptr %8, align 4
  %26 = sub nsw i32 %25, 1
  %27 = sext i32 %26 to i64
  %28 = getelementptr inbounds ptr, ptr %24, i64 %27
  store ptr %23, ptr %28, align 8
  br label %14, !llvm.loop !21

29:                                               ; preds = %14
  %30 = load i32, ptr %8, align 4
  %31 = icmp sgt i32 %30, 1
  br i1 %31, label %32, label %58

32:                                               ; preds = %29
  %33 = load i32, ptr %8, align 4
  %34 = load ptr, ptr %9, align 8
  %35 = call i32 @_set_options(i32 noundef %33, ptr noundef %34)
  store i32 %35, ptr %7, align 4
  %36 = load i32, ptr %8, align 4
  %37 = icmp slt i32 %35, %36
  br i1 %37, label %38, label %58

38:                                               ; preds = %32
  %39 = load ptr, ptr %9, align 8
  %40 = load i32, ptr %7, align 4
  %41 = sext i32 %40 to i64
  %42 = getelementptr inbounds ptr, ptr %39, i64 %41
  %43 = load ptr, ptr %42, align 8
  %44 = call i32 (ptr, ...) @error(ptr noundef @.str.37, ptr noundef %43)
  store i32 1, ptr %7, align 4
  br label %45

45:                                               ; preds = %54, %38
  %46 = load i32, ptr %7, align 4
  %47 = load i32, ptr %8, align 4
  %48 = icmp slt i32 %46, %47
  br i1 %48, label %49, label %57

49:                                               ; preds = %45
  %50 = load ptr, ptr %9, align 8
  %51 = load i32, ptr %7, align 4
  %52 = sext i32 %51 to i64
  %53 = getelementptr inbounds ptr, ptr %50, i64 %52
  call void @slurm_xfree(ptr noundef %53)
  br label %54

54:                                               ; preds = %49
  %55 = load i32, ptr %7, align 4
  %56 = add nsw i32 %55, 1
  store i32 %56, ptr %7, align 4
  br label %45, !llvm.loop !22

57:                                               ; preds = %45
  call void @slurm_xfree(ptr noundef %9)
  store i32 -1, ptr %3, align 4
  store i32 1, ptr %10, align 4
  br label %72

58:                                               ; preds = %32, %29
  store i32 1, ptr %7, align 4
  br label %59

59:                                               ; preds = %68, %58
  %60 = load i32, ptr %7, align 4
  %61 = load i32, ptr %8, align 4
  %62 = icmp slt i32 %60, %61
  br i1 %62, label %63, label %71

63:                                               ; preds = %59
  %64 = load ptr, ptr %9, align 8
  %65 = load i32, ptr %7, align 4
  %66 = sext i32 %65 to i64
  %67 = getelementptr inbounds ptr, ptr %64, i64 %66
  call void @slurm_xfree(ptr noundef %67)
  br label %68

68:                                               ; preds = %63
  %69 = load i32, ptr %7, align 4
  %70 = add nsw i32 %69, 1
  store i32 %70, ptr %7, align 4
  br label %59, !llvm.loop !23

71:                                               ; preds = %59
  call void @slurm_xfree(ptr noundef %9)
  store i32 0, ptr %3, align 4
  store i32 1, ptr %10, align 4
  br label %72

72:                                               ; preds = %71, %57
  call void @llvm.lifetime.end.p0(i64 8, ptr %9) #6
  call void @llvm.lifetime.end.p0(i64 4, ptr %8) #6
  call void @llvm.lifetime.end.p0(i64 4, ptr %7) #6
  call void @llvm.lifetime.end.p0(i64 8, ptr %6) #6
  %73 = load i32, ptr %3, align 4
  ret i32 %73
}