; Function Attrs: nounwind uwtable
define dso_local range(i32 -1, 1) i32 @parse_scron_line(ptr noundef %0, i32 noundef %1) local_unnamed_addr #0 {
  %3 = alloca ptr, align 8
  %4 = alloca ptr, align 8
  call void @llvm.lifetime.start.p0(i64 8, ptr nonnull %4) #8
  %5 = tail call ptr @slurm_xcalloc(i64 noundef 1, i64 noundef 8, i1 noundef zeroext true, i1 noundef zeroext false, ptr noundef nonnull @.str.34, i32 noundef 505, ptr noundef nonnull @__func__.parse_scron_line) #8
  store ptr %5, ptr %4, align 8
  store ptr @.str.36, ptr %5, align 8
  br label %6

6:                                                ; preds = %17, %2
  %indvars.iv = phi i64 [ %indvars.iv.next, %17 ], [ 1, %2 ]
  %.021 = phi ptr [ %spec.select, %17 ], [ %0, %2 ]
  br label %7

7:                                                ; preds = %.critedge.i, %6
  %.020.i = phi ptr [ %.021, %6 ], [ %9, %.critedge.i ]
  %8 = load i8, ptr %.020.i, align 1
  switch i8 %8, label %.preheader.i [
    i8 32, label %.critedge.i
    i8 9, label %.critedge.i
    i8 0, label %get_argument.exit.thread
  ]

.critedge.i:                                      ; preds = %7, %7
  %9 = getelementptr inbounds nuw i8, ptr %.020.i, i64 1
  br label %7, !llvm.loop !19

.preheader.i:                                     ; preds = %7, %11
  %10 = phi i8 [ %.pr.i, %11 ], [ %8, %7 ]
  %.0.i = phi ptr [ %12, %11 ], [ %.020.i, %7 ]
  switch i8 %10, label %11 [
    i8 0, label %.critedge2.i
    i8 32, label %.critedge2.i
    i8 9, label %.critedge2.i
  ]

11:                                               ; preds = %.preheader.i
  %12 = getelementptr inbounds nuw i8, ptr %.0.i, i64 1
  %.pr.i = load i8, ptr %12, align 1
  br label %.preheader.i, !llvm.loop !20

.critedge2.i:                                     ; preds = %.preheader.i, %.preheader.i, %.preheader.i
  %13 = ptrtoint ptr %.0.i to i64
  %14 = ptrtoint ptr %.020.i to i64
  %15 = sub i64 %13, %14
  %16 = call ptr @xstrndup(ptr noundef nonnull %.020.i, i64 noundef %15) #8
  %.not = icmp eq ptr %16, null
  br i1 %.not, label %get_argument.exit.thread, label %17

17:                                               ; preds = %.critedge2.i
  %.not26.i = icmp ne i8 %10, 0
  %spec.select.idx = zext i1 %.not26.i to i64
  %spec.select = getelementptr inbounds nuw i8, ptr %.0.i, i64 %spec.select.idx
  %indvars.iv.next = add nuw nsw i64 %indvars.iv, 1
  %18 = call ptr @slurm_xrecalloc(ptr noundef nonnull %4, i64 noundef %indvars.iv.next, i64 noundef 8, i1 noundef zeroext true, i1 noundef zeroext false, ptr noundef nonnull @.str.34, i32 noundef 510, ptr noundef nonnull @__func__.parse_scron_line) #8
  %19 = load ptr, ptr %4, align 8
  %20 = getelementptr inbounds nuw ptr, ptr %19, i64 %indvars.iv
  store ptr %16, ptr %20, align 8
  br label %6, !llvm.loop !21

get_argument.exit.thread:                         ; preds = %.critedge2.i, %7
  %.040 = trunc i64 %indvars.iv to i32
  %21 = icmp samesign ugt i32 %.040, 1
  br i1 %21, label %22, label %._crit_edge35

22:                                               ; preds = %get_argument.exit.thread
  %23 = load ptr, ptr %4, align 8
  call void @llvm.lifetime.start.p0(i64 8, ptr nonnull %3) #8
  store ptr null, ptr %3, align 8
  %24 = call ptr @slurm_option_table_create(ptr noundef nonnull @opt, ptr noundef nonnull %3) #8
  store i32 0, ptr @optind, align 4
  br label %25

25:                                               ; preds = %28, %22
  %26 = load ptr, ptr %3, align 8
  %27 = call i32 @getopt_long(i32 noundef range(i32 2, -2147483648) %.040, ptr noundef %23, ptr noundef %26, ptr noundef %24, ptr noundef null) #8
  %.not.i = icmp eq i32 %27, -1
  br i1 %.not.i, label %34, label %28

28:                                               ; preds = %25
  %29 = load ptr, ptr @optarg, align 8
  %30 = call i32 @slurm_process_option(ptr noundef nonnull @opt, i32 noundef %27, ptr noundef %29, i1 noundef zeroext false, i1 noundef zeroext false) #8
  %.not7.i = icmp eq i32 %30, 0
  br i1 %.not7.i, label %25, label %31, !llvm.loop !22

31:                                               ; preds = %28
  call void @slurm_option_table_destroy(ptr noundef %24) #8
  call void @slurm_xfree(ptr noundef nonnull %3) #8
  %32 = load i32, ptr @optind, align 4
  %33 = add nsw i32 %32, -1
  br label %_set_options.exit

34:                                               ; preds = %25
  call void @slurm_option_table_destroy(ptr noundef %24) #8
  call void @slurm_xfree(ptr noundef nonnull %3) #8
  %35 = load i32, ptr @optind, align 4
  br label %_set_options.exit

_set_options.exit:                                ; preds = %31, %34
  %.0.i20 = phi i32 [ %33, %31 ], [ %35, %34 ]
  call void @llvm.lifetime.end.p0(i64 8, ptr nonnull %3) #8
  %36 = icmp slt i32 %.0.i20, %.040
  br i1 %36, label %.lr.ph34.preheader, label %.lr.ph.preheader

.lr.ph34.preheader:                               ; preds = %_set_options.exit
  %37 = load ptr, ptr %4, align 8
  %38 = sext i32 %.0.i20 to i64
  %39 = getelementptr inbounds ptr, ptr %37, i64 %38
  %40 = load ptr, ptr %39, align 8
  %41 = call i32 (ptr, ...) @error(ptr noundef nonnull @.str.37, ptr noundef %40) #8
  %umax = call i32 @llvm.umax.i32(i32 %.040, i32 2)
  %wide.trip.count48 = zext i32 %umax to i64
  br label %.lr.ph34

.lr.ph34:                                         ; preds = %.lr.ph34.preheader, %.lr.ph34
  %indvars.iv45 = phi i64 [ 1, %.lr.ph34.preheader ], [ %indvars.iv.next46, %.lr.ph34 ]
  %42 = load ptr, ptr %4, align 8
  %43 = getelementptr inbounds nuw ptr, ptr %42, i64 %indvars.iv45
  call void @slurm_xfree(ptr noundef nonnull %43) #8
  %indvars.iv.next46 = add nuw nsw i64 %indvars.iv45, 1
  %exitcond49.not = icmp eq i64 %indvars.iv.next46, %wide.trip.count48
  br i1 %exitcond49.not, label %._crit_edge35, label %.lr.ph34, !llvm.loop !23

.lr.ph.preheader:                                 ; preds = %_set_options.exit
  %wide.trip.count = and i64 %indvars.iv, 4294967295
  br label %.lr.ph

.lr.ph:                                           ; preds = %.lr.ph.preheader, %.lr.ph
  %indvars.iv42 = phi i64 [ 1, %.lr.ph.preheader ], [ %indvars.iv.next43, %.lr.ph ]
  %44 = load ptr, ptr %4, align 8
  %45 = getelementptr inbounds nuw ptr, ptr %44, i64 %indvars.iv42
  call void @slurm_xfree(ptr noundef nonnull %45) #8
  %indvars.iv.next43 = add nuw nsw i64 %indvars.iv42, 1
  %exitcond.not = icmp eq i64 %indvars.iv.next43, %wide.trip.count
  br i1 %exitcond.not, label %._crit_edge35, label %.lr.ph, !llvm.loop !24

._crit_edge35:                                    ; preds = %.lr.ph, %.lr.ph34, %get_argument.exit.thread
  %.017 = phi i32 [ 0, %get_argument.exit.thread ], [ -1, %.lr.ph34 ], [ 0, %.lr.ph ]
  call void @slurm_xfree(ptr noundef nonnull %4) #8
  call void @llvm.lifetime.end.p0(i64 8, ptr nonnull %4) #8
  ret i32 %.017
}